target datalayout = "e-m:e-p270:32:32-p271:32:32-p272:64:64-i64:64-i128:128-f80:128-n8:16:32:64-S128"
target triple = "x86_64-pc-linux-gnu"

%struct.SDL_Surface = type { i32, i32, i32, i32, i32, ptr, i32, ptr, i32, i32, ptr, i32, ptr, i32, ptr, i32, %struct.SDL_Rect, %struct.SDL_BlitMap }
%struct.SDL_Rect = type { i32, i32, i32, i32 }
%struct.SDL_BlitMap = type { i32, ptr, ptr, %struct.SDL_BlitInfo, i32, i32 }
%struct.SDL_BlitInfo = type { ptr, ptr, i32, i32, i32, i32, ptr, ptr, i32, i32, i32, i32, ptr, ptr, ptr, ptr, ptr, ptr, i32, i32, i8, i8, i8, i8 }

@SDL_surface_magic = internal global i8 0, align 1
@.str = private unnamed_addr constant [26 x i8] c"Parameter '%s' is invalid\00", align 1
@.str.16 = private unnamed_addr constant [4 x i8] c"src\00", align 1
@.str.17 = private unnamed_addr constant [4 x i8] c"dst\00", align 1
@.str.18 = private unnamed_addr constant [40 x i8] c"Surfaces must not be locked during blit\00", align 1

; Function Attrs: nounwind uwtable
define hidden zeroext i1 @SDL_BlitSurfaceUnchecked_REAL(ptr noundef %0, ptr noundef %1, ptr noundef %2, ptr noundef %3) #0 {
  %5 = alloca i1, align 1
  %6 = alloca ptr, align 8
  %7 = alloca ptr, align 8
  %8 = alloca ptr, align 8
  %9 = alloca ptr, align 8
  store ptr %0, ptr %6, align 8
  store ptr %1, ptr %7, align 8
  store ptr %2, ptr %8, align 8
  store ptr %3, ptr %9, align 8
  %10 = load ptr, ptr %6, align 8
  %11 = load ptr, ptr %8, align 8
  %12 = call zeroext i1 @SDL_ValidateMap(ptr noundef %10, ptr noundef %11)
  br i1 %12, label %14, label %13

13:                                               ; preds = %4
  store i1 false, ptr %5, align 1
  br label %24

14:                                               ; preds = %4
  %15 = load ptr, ptr %6, align 8
  %16 = getelementptr inbounds nuw %struct.SDL_Surface, ptr %15, i32 0, i32 17
  %17 = getelementptr inbounds nuw %struct.SDL_BlitMap, ptr %16, i32 0, i32 1
  %18 = load ptr, ptr %17, align 8
  %19 = load ptr, ptr %6, align 8
  %20 = load ptr, ptr %7, align 8
  %21 = load ptr, ptr %8, align 8
  %22 = load ptr, ptr %9, align 8
  %23 = call zeroext i1 %18(ptr noundef %19, ptr noundef %20, ptr noundef %21, ptr noundef %22)
  store i1 %23, ptr %5, align 1
  br label %24

24:                                               ; preds = %14, %13
  %25 = load i1, ptr %5, align 1
  ret i1 %25
}

; Function Attrs: nounwind uwtable
define hidden zeroext i1 @SDL_SurfaceValid(ptr noundef %0) #0 {
  %2 = alloca ptr, align 8
  store ptr %0, ptr %2, align 8
  %3 = load ptr, ptr %2, align 8
  %4 = icmp ne ptr %3, null
  br i1 %4, label %5, label %10

5:                                                ; preds = %1
  %6 = load ptr, ptr %2, align 8
  %7 = getelementptr inbounds nuw %struct.SDL_Surface, ptr %6, i32 0, i32 7
  %8 = load ptr, ptr %7, align 8
  %9 = icmp eq ptr %8, @SDL_surface_magic
  br label %10

10:                                               ; preds = %5, %1
  %11 = phi i1 [ false, %1 ], [ %9, %5 ]
  ret i1 %11
}

; Function Attrs: nounwind uwtable
define hidden zeroext i1 @SDL_BlitSurface_REAL(ptr noundef %0, ptr noundef %1, ptr noundef %2, ptr noundef %3) #0 {
  %5 = alloca i1, align 1
  %6 = alloca ptr, align 8
  %7 = alloca ptr, align 8
  %8 = alloca ptr, align 8
  %9 = alloca ptr, align 8
  %10 = alloca %struct.SDL_Rect, align 4
  %11 = alloca %struct.SDL_Rect, align 4
  %12 = alloca i32, align 4
  %13 = alloca %struct.SDL_Rect, align 4
  %14 = alloca %struct.SDL_Rect, align 4
  store ptr %0, ptr %6, align 8
  store ptr %1, ptr %7, align 8
  store ptr %2, ptr %8, align 8
  store ptr %3, ptr %9, align 8
  call void @llvm.lifetime.start.p0(i64 16, ptr %10) #8
  call void @llvm.lifetime.start.p0(i64 16, ptr %11) #8
  %15 = load ptr, ptr %6, align 8
  %16 = call zeroext i1 @SDL_SurfaceValid(ptr noundef %15)
  br i1 %16, label %19, label %17

17:                                               ; preds = %4
  %18 = call zeroext i1 (ptr, ...) @SDL_SetError_REAL(ptr noundef @.str, ptr noundef @.str.16)
  store i1 %18, ptr %5, align 1
  store i32 1, ptr %12, align 4
  br label %164

19:                                               ; preds = %4
  %20 = load ptr, ptr %8, align 8
  %21 = call zeroext i1 @SDL_SurfaceValid(ptr noundef %20)
  br i1 %21, label %24, label %22

22:                                               ; preds = %19
  %23 = call zeroext i1 (ptr, ...) @SDL_SetError_REAL(ptr noundef @.str, ptr noundef @.str.17)
  store i1 %23, ptr %5, align 1
  store i32 1, ptr %12, align 4
  br label %164

24:                                               ; preds = %19
  %25 = load ptr, ptr %6, align 8
  %26 = getelementptr inbounds nuw %struct.SDL_Surface, ptr %25, i32 0, i32 0
  %27 = load i32, ptr %26, align 8
  %28 = and i32 %27, 4
  %29 = icmp ne i32 %28, 0
  br i1 %29, label %36, label %30

30:                                               ; preds = %24
  %31 = load ptr, ptr %8, align 8
  %32 = getelementptr inbounds nuw %struct.SDL_Surface, ptr %31, i32 0, i32 0
  %33 = load i32, ptr %32, align 8
  %34 = and i32 %33, 4
  %35 = icmp ne i32 %34, 0
  br i1 %35, label %36, label %38

36:                                               ; preds = %30, %24
  %37 = call zeroext i1 (ptr, ...) @SDL_SetError_REAL(ptr noundef @.str.18)
  store i1 %37, ptr %5, align 1
  store i32 1, ptr %12, align 4
  br label %164

38:                                               ; preds = %30
  br label %39

39:                                               ; preds = %38
  br label %40

40:                                               ; preds = %39
  %41 = getelementptr inbounds nuw %struct.SDL_Rect, ptr %10, i32 0, i32 0
  store i32 0, ptr %41, align 4
  %42 = getelementptr inbounds nuw %struct.SDL_Rect, ptr %10, i32 0, i32 1
  store i32 0, ptr %42, align 4
  %43 = load ptr, ptr %6, align 8
  %44 = getelementptr inbounds nuw %struct.SDL_Surface, ptr %43, i32 0, i32 2
  %45 = load i32, ptr %44, align 8
  %46 = getelementptr inbounds nuw %struct.SDL_Rect, ptr %10, i32 0, i32 2
  store i32 %45, ptr %46, align 4
  %47 = load ptr, ptr %6, align 8
  %48 = getelementptr inbounds nuw %struct.SDL_Surface, ptr %47, i32 0, i32 3
  %49 = load i32, ptr %48, align 4
  %50 = getelementptr inbounds nuw %struct.SDL_Rect, ptr %10, i32 0, i32 3
  store i32 %49, ptr %50, align 4
  %51 = load ptr, ptr %9, align 8
  %52 = icmp ne ptr %51, null
  br i1 %52, label %53, label %62

53:                                               ; preds = %40
  %54 = load ptr, ptr %9, align 8
  %55 = getelementptr inbounds nuw %struct.SDL_Rect, ptr %54, i32 0, i32 0
  %56 = load i32, ptr %55, align 4
  %57 = getelementptr inbounds nuw %struct.SDL_Rect, ptr %11, i32 0, i32 0
  store i32 %56, ptr %57, align 4
  %58 = load ptr, ptr %9, align 8
  %59 = getelementptr inbounds nuw %struct.SDL_Rect, ptr %58, i32 0, i32 1
  %60 = load i32, ptr %59, align 4
  %61 = getelementptr inbounds nuw %struct.SDL_Rect, ptr %11, i32 0, i32 1
  store i32 %60, ptr %61, align 4
  br label %65

62:                                               ; preds = %40
  %63 = getelementptr inbounds nuw %struct.SDL_Rect, ptr %11, i32 0, i32 0
  store i32 0, ptr %63, align 4
  %64 = getelementptr inbounds nuw %struct.SDL_Rect, ptr %11, i32 0, i32 1
  store i32 0, ptr %64, align 4
  br label %65

65:                                               ; preds = %62, %53
  %66 = load ptr, ptr %7, align 8
  %67 = icmp ne ptr %66, null
  br i1 %67, label %68, label %96

68:                                               ; preds = %65
  call void @llvm.lifetime.start.p0(i64 16, ptr %13) #8
  %69 = load ptr, ptr %7, align 8
  %70 = call zeroext i1 @SDL_GetRectIntersection_REAL(ptr noundef %69, ptr noundef %10, ptr noundef %13)
  %71 = zext i1 %70 to i32
  %72 = icmp eq i32 %71, 0
  br i1 %72, label %73, label %74

73:                                               ; preds = %68
  store i1 true, ptr %5, align 1
  store i32 1, ptr %12, align 4
  br label %93

74:                                               ; preds = %68
  %75 = getelementptr inbounds nuw %struct.SDL_Rect, ptr %13, i32 0, i32 0
  %76 = load i32, ptr %75, align 4
  %77 = load ptr, ptr %7, align 8
  %78 = getelementptr inbounds nuw %struct.SDL_Rect, ptr %77, i32 0, i32 0
  %79 = load i32, ptr %78, align 4
  %80 = sub nsw i32 %76, %79
  %81 = getelementptr inbounds nuw %struct.SDL_Rect, ptr %11, i32 0, i32 0
  %82 = load i32, ptr %81, align 4
  %83 = add nsw i32 %82, %80
  store i32 %83, ptr %81, align 4
  %84 = getelementptr inbounds nuw %struct.SDL_Rect, ptr %13, i32 0, i32 1
  %85 = load i32, ptr %84, align 4
  %86 = load ptr, ptr %7, align 8
  %87 = getelementptr inbounds nuw %struct.SDL_Rect, ptr %86, i32 0, i32 1
  %88 = load i32, ptr %87, align 4
  %89 = sub nsw i32 %85, %88
  %90 = getelementptr inbounds nuw %struct.SDL_Rect, ptr %11, i32 0, i32 1
  %91 = load i32, ptr %90, align 4
  %92 = add nsw i32 %91, %89
  store i32 %92, ptr %90, align 4
  call void @llvm.memcpy.p0.p0.i64(ptr align 4 %10, ptr align 4 %13, i64 16, i1 false)
  store i32 0, ptr %12, align 4
  br label %93

93:                                               ; preds = %74, %73
  call void @llvm.lifetime.end.p0(i64 16, ptr %13) #8
  %94 = load i32, ptr %12, align 4
  switch i32 %94, label %164 [
    i32 0, label %95
  ]

95:                                               ; preds = %93
  br label %96

96:                                               ; preds = %95, %65
  %97 = getelementptr inbounds nuw %struct.SDL_Rect, ptr %10, i32 0, i32 2
  %98 = load i32, ptr %97, align 4
  %99 = getelementptr inbounds nuw %struct.SDL_Rect, ptr %11, i32 0, i32 2
  store i32 %98, ptr %99, align 4
  %100 = getelementptr inbounds nuw %struct.SDL_Rect, ptr %10, i32 0, i32 3
  %101 = load i32, ptr %100, align 4
  %102 = getelementptr inbounds nuw %struct.SDL_Rect, ptr %11, i32 0, i32 3
  store i32 %101, ptr %102, align 4
  call void @llvm.lifetime.start.p0(i64 16, ptr %14) #8
  %103 = load ptr, ptr %8, align 8
  %104 = getelementptr inbounds nuw %struct.SDL_Surface, ptr %103, i32 0, i32 16
  %105 = call zeroext i1 @SDL_GetRectIntersection_REAL(ptr noundef %11, ptr noundef %104, ptr noundef %14)
  %106 = zext i1 %105 to i32
  %107 = icmp eq i32 %106, 0
  br i1 %107, label %108, label %109

108:                                              ; preds = %96
  store i1 true, ptr %5, align 1
  store i32 1, ptr %12, align 4
  br label %132

109:                                              ; preds = %96
  %110 = getelementptr inbounds nuw %struct.SDL_Rect, ptr %14, i32 0, i32 0
  %111 = load i32, ptr %110, align 4
  %112 = getelementptr inbounds nuw %struct.SDL_Rect, ptr %11, i32 0, i32 0
  %113 = load i32, ptr %112, align 4
  %114 = sub nsw i32 %111, %113
  %115 = getelementptr inbounds nuw %struct.SDL_Rect, ptr %10, i32 0, i32 0
  %116 = load i32, ptr %115, align 4
  %117 = add nsw i32 %116, %114
  store i32 %117, ptr %115, align 4
  %118 = getelementptr inbounds nuw %struct.SDL_Rect, ptr %14, i32 0, i32 1
  %119 = load i32, ptr %118, align 4
  %120 = getelementptr inbounds nuw %struct.SDL_Rect, ptr %11, i32 0, i32 1
  %121 = load i32, ptr %120, align 4
  %122 = sub nsw i32 %119, %121
  %123 = getelementptr inbounds nuw %struct.SDL_Rect, ptr %10, i32 0, i32 1
  %124 = load i32, ptr %123, align 4
  %125 = add nsw i32 %124, %122
  store i32 %125, ptr %123, align 4
  %126 = getelementptr inbounds nuw %struct.SDL_Rect, ptr %14, i32 0, i32 2
  %127 = load i32, ptr %126, align 4
  %128 = getelementptr inbounds nuw %struct.SDL_Rect, ptr %10, i32 0, i32 2
  store i32 %127, ptr %128, align 4
  %129 = getelementptr inbounds nuw %struct.SDL_Rect, ptr %14, i32 0, i32 3
  %130 = load i32, ptr %129, align 4
  %131 = getelementptr inbounds nuw %struct.SDL_Rect, ptr %10, i32 0, i32 3
  store i32 %130, ptr %131, align 4
  call void @llvm.memcpy.p0.p0.i64(ptr align 4 %11, ptr align 4 %14, i64 16, i1 false)
  store i32 0, ptr %12, align 4
  br label %132

132:                                              ; preds = %109, %108
  call void @llvm.lifetime.end.p0(i64 16, ptr %14) #8
  %133 = load i32, ptr %12, align 4
  switch i32 %133, label %164 [
    i32 0, label %134
  ]

134:                                              ; preds = %132
  %135 = getelementptr inbounds nuw %struct.SDL_Rect, ptr %11, i32 0, i32 2
  %136 = load i32, ptr %135, align 4
  %137 = icmp sle i32 %136, 0
  br i1 %137, label %142, label %138

138:                                              ; preds = %134
  %139 = getelementptr inbounds nuw %struct.SDL_Rect, ptr %11, i32 0, i32 3
  %140 = load i32, ptr %139, align 4
  %141 = icmp sle i32 %140, 0
  br i1 %141, label %142, label %143

142:                                              ; preds = %138, %134
  store i1 true, ptr %5, align 1
  store i32 1, ptr %12, align 4
  br label %164

143:                                              ; preds = %138
  %144 = load ptr, ptr %6, align 8
  %145 = getelementptr inbounds nuw %struct.SDL_Surface, ptr %144, i32 0, i32 17
  %146 = getelementptr inbounds nuw %struct.SDL_BlitMap, ptr %145, i32 0, i32 3
  %147 = getelementptr inbounds nuw %struct.SDL_BlitInfo, ptr %146, i32 0, i32 18
  %148 = load i32, ptr %147, align 8
  %149 = and i32 %148, 2048
  %150 = icmp ne i32 %149, 0
  br i1 %150, label %151, label %160

151:                                              ; preds = %143
  %152 = load ptr, ptr %6, align 8
  %153 = getelementptr inbounds nuw %struct.SDL_Surface, ptr %152, i32 0, i32 17
  %154 = getelementptr inbounds nuw %struct.SDL_BlitMap, ptr %153, i32 0, i32 3
  %155 = getelementptr inbounds nuw %struct.SDL_BlitInfo, ptr %154, i32 0, i32 18
  %156 = load i32, ptr %155, align 8
  %157 = and i32 %156, -2049
  store i32 %157, ptr %155, align 8
  %158 = load ptr, ptr %6, align 8
  %159 = getelementptr inbounds nuw %struct.SDL_Surface, ptr %158, i32 0, i32 17
  call void @SDL_InvalidateMap(ptr noundef %159)
  br label %160

160:                                              ; preds = %151, %143
  %161 = load ptr, ptr %6, align 8
  %162 = load ptr, ptr %8, align 8
  %163 = call zeroext i1 @SDL_BlitSurfaceUnchecked_REAL(ptr noundef %161, ptr noundef %10, ptr noundef %162, ptr noundef %11)
  store i1 %163, ptr %5, align 1
  store i32 1, ptr %12, align 4
  br label %164

164:                                              ; preds = %160, %142, %132, %93, %36, %22, %17
  call void @llvm.lifetime.end.p0(i64 16, ptr %11) #8
  call void @llvm.lifetime.end.p0(i64 16, ptr %10) #8
  %165 = load i1, ptr %5, align 1
  ret i1 %165
}