; Function Attrs: nounwind uwtable
define hidden zeroext i1 @SDL_BlitSurface_REAL(ptr noundef %0, ptr noundef %1, ptr noundef %2, ptr noundef readonly captures(address_is_null) %3) local_unnamed_addr #2 {
  %5 = alloca %struct.SDL_Rect, align 4
  %6 = alloca %struct.SDL_Rect, align 4
  %7 = alloca %struct.SDL_Rect, align 4
  %8 = alloca %struct.SDL_Rect, align 4
  call void @llvm.lifetime.start.p0(i64 16, ptr nonnull %5) #10
  call void @llvm.lifetime.start.p0(i64 16, ptr nonnull %6) #10
  %.not.i = icmp eq ptr %0, null
  br i1 %.not.i, label %SDL_SurfaceValid.exit.thread, label %SDL_SurfaceValid.exit

SDL_SurfaceValid.exit:                            ; preds = %4
  %9 = getelementptr inbounds nuw i8, ptr %0, i64 40
  %10 = load ptr, ptr %9, align 8
  %11 = icmp eq ptr %10, @SDL_surface_magic
  br i1 %11, label %13, label %SDL_SurfaceValid.exit.thread

SDL_SurfaceValid.exit.thread:                     ; preds = %4, %SDL_SurfaceValid.exit
  %12 = tail call zeroext i1 (ptr, ...) @SDL_SetError_REAL(ptr noundef nonnull @.str, ptr noundef nonnull @.str.16) #10
  br label %SDL_BlitSurfaceUnchecked_REAL.exit

13:                                               ; preds = %SDL_SurfaceValid.exit
  %.not.i34 = icmp eq ptr %2, null
  br i1 %.not.i34, label %SDL_SurfaceValid.exit35.thread, label %SDL_SurfaceValid.exit35

SDL_SurfaceValid.exit35:                          ; preds = %13
  %14 = getelementptr inbounds nuw i8, ptr %2, i64 40
  %15 = load ptr, ptr %14, align 8
  %16 = icmp eq ptr %15, @SDL_surface_magic
  br i1 %16, label %18, label %SDL_SurfaceValid.exit35.thread

SDL_SurfaceValid.exit35.thread:                   ; preds = %13, %SDL_SurfaceValid.exit35
  %17 = tail call zeroext i1 (ptr, ...) @SDL_SetError_REAL(ptr noundef nonnull @.str, ptr noundef nonnull @.str.17) #10
  br label %SDL_BlitSurfaceUnchecked_REAL.exit

18:                                               ; preds = %SDL_SurfaceValid.exit35
  %19 = load i32, ptr %0, align 8
  %20 = and i32 %19, 4
  %.not = icmp eq i32 %20, 0
  br i1 %.not, label %21, label %24

21:                                               ; preds = %18
  %22 = load i32, ptr %2, align 8
  %23 = and i32 %22, 4
  %.not28 = icmp eq i32 %23, 0
  br i1 %.not28, label %26, label %24

24:                                               ; preds = %21, %18
  %25 = tail call zeroext i1 (ptr, ...) @SDL_SetError_REAL(ptr noundef nonnull @.str.18) #10
  br label %SDL_BlitSurfaceUnchecked_REAL.exit

26:                                               ; preds = %21
  store i32 0, ptr %5, align 4
  %27 = getelementptr inbounds nuw i8, ptr %5, i64 4
  store i32 0, ptr %27, align 4
  %28 = getelementptr inbounds nuw i8, ptr %0, i64 8
  %29 = load i32, ptr %28, align 8
  %30 = getelementptr inbounds nuw i8, ptr %5, i64 8
  store i32 %29, ptr %30, align 4
  %31 = getelementptr inbounds nuw i8, ptr %0, i64 12
  %32 = load i32, ptr %31, align 4
  %33 = getelementptr inbounds nuw i8, ptr %5, i64 12
  store i32 %32, ptr %33, align 4
  %.not29 = icmp eq ptr %3, null
  br i1 %.not29, label %38, label %34

34:                                               ; preds = %26
  %35 = load i32, ptr %3, align 4
  %36 = getelementptr inbounds nuw i8, ptr %3, i64 4
  %37 = load i32, ptr %36, align 4
  br label %38

38:                                               ; preds = %26, %34
  %39 = phi i32 [ %35, %34 ], [ 0, %26 ]
  %40 = phi i32 [ %37, %34 ], [ 0, %26 ]
  store i32 %39, ptr %6, align 4
  %41 = getelementptr inbounds nuw i8, ptr %6, i64 4
  store i32 %40, ptr %41, align 4
  %.not30 = icmp eq ptr %1, null
  br i1 %.not30, label %55, label %42

42:                                               ; preds = %38
  call void @llvm.lifetime.start.p0(i64 16, ptr nonnull %7) #10
  %43 = call zeroext i1 @SDL_GetRectIntersection_REAL(ptr noundef nonnull %1, ptr noundef nonnull %5, ptr noundef nonnull %7) #10
  br i1 %43, label %44, label %.critedge

44:                                               ; preds = %42
  %45 = load i32, ptr %7, align 4
  %46 = load i32, ptr %1, align 4
  %47 = sub i32 %45, %46
  %48 = add nsw i32 %47, %39
  store i32 %48, ptr %6, align 4
  %49 = getelementptr inbounds nuw i8, ptr %7, i64 4
  %50 = load i32, ptr %49, align 4
  %51 = getelementptr inbounds nuw i8, ptr %1, i64 4
  %52 = load i32, ptr %51, align 4
  %53 = sub i32 %50, %52
  %54 = add nsw i32 %53, %40
  store i32 %54, ptr %41, align 4
  call void @llvm.memcpy.p0.p0.i64(ptr noundef nonnull align 4 dereferenceable(16) %5, ptr noundef nonnull align 4 dereferenceable(16) %7, i64 16, i1 false)
  call void @llvm.lifetime.end.p0(i64 16, ptr nonnull %7) #10
  %.pre = load i32, ptr %30, align 4
  %.pre40 = load i32, ptr %33, align 4
  br label %55

55:                                               ; preds = %44, %38
  %56 = phi i32 [ %.pre40, %44 ], [ %32, %38 ]
  %57 = phi i32 [ %.pre, %44 ], [ %29, %38 ]
  %58 = getelementptr inbounds nuw i8, ptr %6, i64 8
  store i32 %57, ptr %58, align 4
  %59 = getelementptr inbounds nuw i8, ptr %6, i64 12
  store i32 %56, ptr %59, align 4
  call void @llvm.lifetime.start.p0(i64 16, ptr nonnull %8) #10
  %60 = getelementptr inbounds nuw i8, ptr %2, i64 100
  %61 = call zeroext i1 @SDL_GetRectIntersection_REAL(ptr noundef nonnull %6, ptr noundef nonnull %60, ptr noundef nonnull %8) #10
  br i1 %61, label %62, label %.critedge33

62:                                               ; preds = %55
  %63 = load i32, ptr %8, align 4
  %64 = load i32, ptr %6, align 4
  %65 = sub i32 %63, %64
  %66 = load i32, ptr %5, align 4
  %67 = add nsw i32 %65, %66
  store i32 %67, ptr %5, align 4
  %68 = getelementptr inbounds nuw i8, ptr %8, i64 4
  %69 = load i32, ptr %68, align 4
  %70 = load i32, ptr %41, align 4
  %71 = sub i32 %69, %70
  %72 = load i32, ptr %27, align 4
  %73 = add nsw i32 %71, %72
  store i32 %73, ptr %27, align 4
  %74 = getelementptr inbounds nuw i8, ptr %8, i64 8
  %75 = load i32, ptr %74, align 4
  store i32 %75, ptr %30, align 4
  %76 = getelementptr inbounds nuw i8, ptr %8, i64 12
  %77 = load i32, ptr %76, align 4
  store i32 %77, ptr %33, align 4
  call void @llvm.memcpy.p0.p0.i64(ptr noundef nonnull align 4 dereferenceable(16) %6, ptr noundef nonnull align 4 dereferenceable(16) %8, i64 16, i1 false)
  call void @llvm.lifetime.end.p0(i64 16, ptr nonnull %8) #10
  %78 = load i32, ptr %58, align 4
  %79 = icmp slt i32 %78, 1
  %80 = load i32, ptr %59, align 4
  %81 = icmp slt i32 %80, 1
  %or.cond = select i1 %79, i1 true, i1 %81
  br i1 %or.cond, label %SDL_BlitSurfaceUnchecked_REAL.exit, label %82

82:                                               ; preds = %62
  %83 = getelementptr inbounds nuw i8, ptr %0, i64 256
  %84 = load i32, ptr %83, align 8
  %85 = and i32 %84, 2048
  %.not31 = icmp eq i32 %85, 0
  br i1 %.not31, label %89, label %86

86:                                               ; preds = %82
  %87 = getelementptr inbounds nuw i8, ptr %0, i64 120
  %88 = and i32 %84, -2049
  store i32 %88, ptr %83, align 8
  call void @SDL_InvalidateMap(ptr noundef nonnull %87) #10
  br label %89

89:                                               ; preds = %86, %82
  %90 = call zeroext i1 @SDL_ValidateMap(ptr noundef nonnull %0, ptr noundef nonnull %2) #10
  br i1 %90, label %91, label %SDL_BlitSurfaceUnchecked_REAL.exit

91:                                               ; preds = %89
  %92 = getelementptr inbounds nuw i8, ptr %0, i64 128
  %93 = load ptr, ptr %92, align 8
  %94 = call zeroext i1 %93(ptr noundef nonnull %0, ptr noundef nonnull %5, ptr noundef nonnull %2, ptr noundef nonnull %6) #10
  br label %SDL_BlitSurfaceUnchecked_REAL.exit

.critedge:                                        ; preds = %42
  call void @llvm.lifetime.end.p0(i64 16, ptr nonnull %7) #10
  br label %SDL_BlitSurfaceUnchecked_REAL.exit

.critedge33:                                      ; preds = %55
  call void @llvm.lifetime.end.p0(i64 16, ptr nonnull %8) #10
  br label %SDL_BlitSurfaceUnchecked_REAL.exit

SDL_BlitSurfaceUnchecked_REAL.exit:               ; preds = %91, %89, %62, %.critedge33, %.critedge, %24, %SDL_SurfaceValid.exit35.thread, %SDL_SurfaceValid.exit.thread
  %.024 = phi i1 [ %25, %24 ], [ %17, %SDL_SurfaceValid.exit35.thread ], [ %12, %SDL_SurfaceValid.exit.thread ], [ true, %.critedge ], [ true, %.critedge33 ], [ true, %62 ], [ %94, %91 ], [ false, %89 ]
  call void @llvm.lifetime.end.p0(i64 16, ptr nonnull %6) #10
  call void @llvm.lifetime.end.p0(i64 16, ptr nonnull %5) #10
  ret i1 %.024
}